target datalayout = "e-m:e-p270:32:32-p271:32:32-p272:64:64-i64:64-i128:128-f80:128-n8:16:32:64-S128"
target triple = "x86_64-pc-linux-gnu"

%class.JfrStackTrace = type <{ ptr, ptr, i64, i64, i32, i32, i8, i8, i8, i8, [4 x i8] }>
%class.Thread = type { %class.ThreadShadow.base, i64, [43 x i64], ptr, ptr, i32, ptr, i64, i64, %class.ThreadLocalAllocBuffer, i64, %class.ThreadHeapSampler, %class.ThreadStatisticalInfo, %class.JfrThreadLocal, ptr, ptr, ptr, ptr, ptr, ptr, i64, i32, i32, ptr, i32, i32, i32, i32, i8, ptr }
%class.ThreadShadow.base = type <{ ptr, ptr, ptr, i32 }>
%class.ThreadLocalAllocBuffer = type <{ ptr, ptr, ptr, ptr, ptr, i64, i64, i64, i64, i32, i32, i32, i32, i64, %class.AdaptiveWeightedAverage, [4 x i8] }>
%class.AdaptiveWeightedAverage = type { float, i32, i32, i8, float }
%class.ThreadHeapSampler = type { i64 }
%class.ThreadStatisticalInfo = type { i64, i64 }
%class.JfrThreadLocal = type <{ ptr, ptr, ptr, ptr, ptr, ptr, ptr, ptr, ptr, ptr, %class.RefCountHandle, i64, i64, i64, i64, i64, i64, i64, i64, i64, i64, i64, i32, i32, i32, i16, i8, i8, i8, i8, i8, [5 x i8] }>
%class.RefCountHandle = type { ptr }

@_ZL9_instance = internal global ptr null, align 8

; Function Attrs: mustprogress nounwind uwtable
define hidden noundef i64 @_ZN23JfrStackTraceRepository3addERS_RK13JfrStackTrace(ptr noundef nonnull align 8 dereferenceable(16432) %0, ptr noundef nonnull align 8 dereferenceable(44) %1) #1 align 2 {
  %3 = alloca ptr, align 8
  %4 = alloca ptr, align 8
  %5 = alloca i64, align 8
  store ptr %0, ptr %3, align 8
  store ptr %1, ptr %4, align 8
  %6 = load ptr, ptr %3, align 8
  %7 = load ptr, ptr %4, align 8
  %8 = call noundef i64 @_ZN23JfrStackTraceRepository9add_traceERK13JfrStackTrace(ptr noundef nonnull align 8 dereferenceable(16432) %6, ptr noundef nonnull align 8 dereferenceable(44) %7)
  store i64 %8, ptr %5, align 8
  %9 = load i64, ptr %5, align 8
  %10 = icmp eq i64 %9, 0
  br i1 %10, label %11, label %16

11:                                               ; preds = %2
  %12 = load ptr, ptr %4, align 8
  call void @_ZNK13JfrStackTrace15resolve_linenosEv(ptr noundef nonnull align 8 dereferenceable(44) %12)
  %13 = load ptr, ptr %3, align 8
  %14 = load ptr, ptr %4, align 8
  %15 = call noundef i64 @_ZN23JfrStackTraceRepository9add_traceERK13JfrStackTrace(ptr noundef nonnull align 8 dereferenceable(16432) %13, ptr noundef nonnull align 8 dereferenceable(44) %14)
  store i64 %15, ptr %5, align 8
  br label %16

16:                                               ; preds = %11, %2
  %17 = load i64, ptr %5, align 8
  ret i64 %17
}

; Function Attrs: mustprogress nounwind uwtable
define hidden noundef i64 @_ZN23JfrStackTraceRepository6recordEP10JavaThreadilP13JfrStackFramej(ptr noundef nonnull align 8 dereferenceable(16432) %0, ptr noundef %1, i32 noundef %2, i64 noundef %3, ptr noundef %4, i32 noundef %5) #1 align 2 {
  %7 = alloca ptr, align 8
  %8 = alloca ptr, align 8
  %9 = alloca i32, align 4
  %10 = alloca i64, align 8
  %11 = alloca ptr, align 8
  %12 = alloca i32, align 4
  %13 = alloca %class.JfrStackTrace, align 8
  store ptr %0, ptr %7, align 8
  store ptr %1, ptr %8, align 8
  store i32 %2, ptr %9, align 4
  store i64 %3, ptr %10, align 8
  store ptr %4, ptr %11, align 8
  store i32 %5, ptr %12, align 4
  %14 = load ptr, ptr %11, align 8
  %15 = load i32, ptr %12, align 4
  call void @_ZN13JfrStackTraceC1EP13JfrStackFramej(ptr noundef nonnull align 8 dereferenceable(44) %13, ptr noundef %14, i32 noundef %15)
  %16 = load ptr, ptr %8, align 8
  %17 = load i32, ptr %9, align 4
  %18 = load i64, ptr %10, align 8
  %19 = call noundef zeroext i1 @_ZN13JfrStackTrace6recordEP10JavaThreadil(ptr noundef nonnull align 8 dereferenceable(44) %13, ptr noundef %16, i32 noundef %17, i64 noundef %18)
  br i1 %19, label %20, label %23

20:                                               ; preds = %6
  %21 = call noundef nonnull align 8 dereferenceable(16432) ptr @_ZN23JfrStackTraceRepository8instanceEv()
  %22 = call noundef i64 @_ZN23JfrStackTraceRepository3addERS_RK13JfrStackTrace(ptr noundef nonnull align 8 dereferenceable(16432) %21, ptr noundef nonnull align 8 dereferenceable(44) %13)
  br label %24

23:                                               ; preds = %6
  br label %24

24:                                               ; preds = %23, %20
  %25 = phi i64 [ %22, %20 ], [ 0, %23 ]
  call void @_ZN13JfrStackTraceD1Ev(ptr noundef nonnull align 8 dereferenceable(44) %13) #9
  ret i64 %25
}

; Function Attrs: mustprogress nounwind uwtable
define linkonce_odr hidden noundef ptr @_ZN10JavaThread4castEP6Thread(ptr noundef %0) #1 comdat align 2 {
  %2 = alloca ptr, align 8
  store ptr %0, ptr %2, align 8
  %3 = load ptr, ptr %2, align 8
  ret ptr %3
}

; Function Attrs: mustprogress nounwind uwtable
define hidden noundef nonnull align 8 dereferenceable(16432) ptr @_ZN23JfrStackTraceRepository8instanceEv() #1 align 2 {
  %1 = load ptr, ptr @_ZL9_instance, align 8
  ret ptr %1
}

; Function Attrs: mustprogress nounwind uwtable
define linkonce_odr hidden noundef ptr @_ZNK14JfrThreadLocal11stackframesEv(ptr noundef nonnull align 8 dereferenceable(195) %0) #1 comdat align 2 {
  %2 = alloca ptr, align 8
  store ptr %0, ptr %2, align 8
  %3 = load ptr, ptr %2, align 8
  %4 = getelementptr inbounds %class.JfrThreadLocal, ptr %3, i32 0, i32 8
  %5 = load ptr, ptr %4, align 8
  %6 = icmp ne ptr %5, null
  br i1 %6, label %7, label %10

7:                                                ; preds = %1
  %8 = getelementptr inbounds %class.JfrThreadLocal, ptr %3, i32 0, i32 8
  %9 = load ptr, ptr %8, align 8
  br label %12

10:                                               ; preds = %1
  %11 = call noundef ptr @_ZNK14JfrThreadLocal19install_stackframesEv(ptr noundef nonnull align 8 dereferenceable(195) %3)
  br label %12

12:                                               ; preds = %10, %7
  %13 = phi ptr [ %9, %7 ], [ %11, %10 ]
  ret ptr %13
}

; Function Attrs: mustprogress nounwind uwtable
define linkonce_odr hidden noundef i64 @_ZNK14JfrThreadLocal21cached_stack_trace_idEv(ptr noundef nonnull align 8 dereferenceable(195) %0) #1 comdat align 2 {
  %2 = alloca ptr, align 8
  store ptr %0, ptr %2, align 8
  %3 = load ptr, ptr %2, align 8
  %4 = getelementptr inbounds %class.JfrThreadLocal, ptr %3, i32 0, i32 15
  %5 = load i64, ptr %4, align 8
  ret i64 %5
}

; Function Attrs: mustprogress nounwind uwtable
define linkonce_odr hidden noundef zeroext i1 @_ZNK14JfrThreadLocal22has_cached_stack_traceEv(ptr noundef nonnull align 8 dereferenceable(195) %0) #1 comdat align 2 {
  %2 = alloca ptr, align 8
  store ptr %0, ptr %2, align 8
  %3 = load ptr, ptr %2, align 8
  %4 = getelementptr inbounds %class.JfrThreadLocal, ptr %3, i32 0, i32 15
  %5 = load i64, ptr %4, align 8
  %6 = icmp ne i64 %5, -1
  ret i1 %6
}

; Function Attrs: mustprogress nounwind uwtable
define linkonce_odr hidden noundef ptr @_ZNK6Thread16jfr_thread_localEv(ptr noundef nonnull align 8 dereferenceable(888) %0) #1 comdat align 2 {
  %2 = alloca ptr, align 8
  store ptr %0, ptr %2, align 8
  %3 = load ptr, ptr %2, align 8
  %4 = getelementptr inbounds %class.Thread, ptr %3, i32 0, i32 13
  ret ptr %4
}

; Function Attrs: mustprogress nounwind uwtable
define hidden noundef i64 @_ZN23JfrStackTraceRepository6recordEP6Threadil(ptr noundef %0, i32 noundef %1, i64 noundef %2) #1 align 2 {
  %4 = alloca i64, align 8
  %5 = alloca ptr, align 8
  %6 = alloca i32, align 4
  %7 = alloca i64, align 8
  %8 = alloca ptr, align 8
  %9 = alloca ptr, align 8
  store ptr %0, ptr %5, align 8
  store i32 %1, ptr %6, align 4
  store i64 %2, ptr %7, align 8
  %10 = load ptr, ptr %5, align 8
  %11 = call noundef ptr @_ZNK6Thread16jfr_thread_localEv(ptr noundef nonnull align 8 dereferenceable(888) %10)
  store ptr %11, ptr %8, align 8
  %12 = load ptr, ptr %8, align 8
  %13 = call noundef zeroext i1 @_ZNK14JfrThreadLocal22has_cached_stack_traceEv(ptr noundef nonnull align 8 dereferenceable(195) %12)
  br i1 %13, label %14, label %17

14:                                               ; preds = %3
  %15 = load ptr, ptr %8, align 8
  %16 = call noundef i64 @_ZNK14JfrThreadLocal21cached_stack_trace_idEv(ptr noundef nonnull align 8 dereferenceable(195) %15)
  store i64 %16, ptr %4, align 8
  br label %46

17:                                               ; preds = %3
  %18 = load ptr, ptr %5, align 8
  %19 = load ptr, ptr %18, align 8
  %20 = getelementptr inbounds ptr, ptr %19, i64 7
  %21 = load ptr, ptr %20, align 8
  %22 = call noundef zeroext i1 %21(ptr noundef nonnull align 8 dereferenceable(888) %18)
  br i1 %22, label %23, label %29

23:                                               ; preds = %17
  %24 = load ptr, ptr %5, align 8
  %25 = load ptr, ptr %24, align 8
  %26 = getelementptr inbounds ptr, ptr %25, i64 10
  %27 = load ptr, ptr %26, align 8
  %28 = call noundef zeroext i1 %27(ptr noundef nonnull align 8 dereferenceable(888) %24)
  br i1 %28, label %29, label %30

29:                                               ; preds = %23, %17
  store i64 0, ptr %4, align 8
  br label %46

30:                                               ; preds = %23
  %31 = load ptr, ptr %8, align 8
  %32 = call noundef ptr @_ZNK14JfrThreadLocal11stackframesEv(ptr noundef nonnull align 8 dereferenceable(195) %31)
  store ptr %32, ptr %9, align 8
  %33 = load ptr, ptr %9, align 8
  %34 = icmp eq ptr %33, null
  br i1 %34, label %35, label %36

35:                                               ; preds = %30
  store i64 0, ptr %4, align 8
  br label %46

36:                                               ; preds = %30
  %37 = call noundef nonnull align 8 dereferenceable(16432) ptr @_ZN23JfrStackTraceRepository8instanceEv()
  %38 = load ptr, ptr %5, align 8
  %39 = call noundef ptr @_ZN10JavaThread4castEP6Thread(ptr noundef %38)
  %40 = load i32, ptr %6, align 4
  %41 = load i64, ptr %7, align 8
  %42 = load ptr, ptr %9, align 8
  %43 = load ptr, ptr %8, align 8
  %44 = call noundef i32 @_ZNK14JfrThreadLocal10stackdepthEv(ptr noundef nonnull align 8 dereferenceable(195) %43)
  %45 = call noundef i64 @_ZN23JfrStackTraceRepository6recordEP10JavaThreadilP13JfrStackFramej(ptr noundef nonnull align 8 dereferenceable(16432) %37, ptr noundef %39, i32 noundef %40, i64 noundef %41, ptr noundef %42, i32 noundef %44)
  store i64 %45, ptr %4, align 8
  br label %46

46:                                               ; preds = %36, %35, %29, %14
  %47 = load i64, ptr %4, align 8
  ret i64 %47
}