; Function Attrs: mustprogress nounwind uwtable
define hidden noundef i64 @_ZN23JfrStackTraceRepository6recordEP6Threadil(ptr noundef %0, i32 noundef %1, i64 noundef %2) local_unnamed_addr #3 align 2 {
  %4 = alloca %class.JfrStackTrace, align 8
  %5 = getelementptr inbounds i8, ptr %0, i64 584
  %6 = getelementptr inbounds i8, ptr %0, i64 704
  %7 = load i64, ptr %6, align 8
  %.not = icmp eq i64 %7, -1
  br i1 %.not, label %8, label %33

8:                                                ; preds = %3
  %9 = load ptr, ptr %0, align 8
  %10 = getelementptr inbounds i8, ptr %9, i64 56
  %11 = load ptr, ptr %10, align 8
  %12 = tail call noundef zeroext i1 %11(ptr noundef nonnull align 8 dereferenceable(888) %0) #13
  br i1 %12, label %13, label %33

13:                                               ; preds = %8
  %14 = load ptr, ptr %0, align 8
  %15 = getelementptr inbounds i8, ptr %14, i64 80
  %16 = load ptr, ptr %15, align 8
  %17 = tail call noundef zeroext i1 %16(ptr noundef nonnull align 8 dereferenceable(888) %0) #13
  br i1 %17, label %33, label %18

18:                                               ; preds = %13
  %19 = getelementptr inbounds i8, ptr %0, i64 648
  %20 = load ptr, ptr %19, align 8
  %.not.i = icmp eq ptr %20, null
  br i1 %.not.i, label %_ZNK14JfrThreadLocal11stackframesEv.exit, label %_ZNK14JfrThreadLocal11stackframesEv.exit.thread

_ZNK14JfrThreadLocal11stackframesEv.exit:         ; preds = %18
  %21 = tail call noundef ptr @_ZNK14JfrThreadLocal19install_stackframesEv(ptr noundef nonnull align 8 dereferenceable(195) %5) #13
  %22 = icmp eq ptr %21, null
  br i1 %22, label %33, label %_ZNK14JfrThreadLocal11stackframesEv.exit.thread

_ZNK14JfrThreadLocal11stackframesEv.exit.thread:  ; preds = %18, %_ZNK14JfrThreadLocal11stackframesEv.exit
  %23 = phi ptr [ %21, %_ZNK14JfrThreadLocal11stackframesEv.exit ], [ %20, %18 ]
  %24 = tail call noundef i32 @_ZNK14JfrThreadLocal10stackdepthEv(ptr noundef nonnull align 8 dereferenceable(195) %5) #13
  call void @llvm.lifetime.start.p0(i64 48, ptr nonnull %4)
  call void @_ZN13JfrStackTraceC1EP13JfrStackFramej(ptr noundef nonnull align 8 dereferenceable(44) %4, ptr noundef nonnull %23, i32 noundef %24) #13
  %25 = call noundef zeroext i1 @_ZN13JfrStackTrace6recordEP10JavaThreadil(ptr noundef nonnull align 8 dereferenceable(44) %4, ptr noundef nonnull %0, i32 noundef %1, i64 noundef %2) #13
  br i1 %25, label %26, label %_ZN23JfrStackTraceRepository6recordEP10JavaThreadilP13JfrStackFramej.exit

26:                                               ; preds = %_ZNK14JfrThreadLocal11stackframesEv.exit.thread
  %27 = load ptr, ptr @_ZL9_instance, align 8
  %28 = call noundef i64 @_ZN23JfrStackTraceRepository9add_traceERK13JfrStackTrace(ptr noundef nonnull align 8 dereferenceable(16432) %27, ptr noundef nonnull align 8 dereferenceable(44) %4)
  %29 = icmp eq i64 %28, 0
  br i1 %29, label %30, label %_ZN23JfrStackTraceRepository6recordEP10JavaThreadilP13JfrStackFramej.exit

30:                                               ; preds = %26
  call void @_ZNK13JfrStackTrace15resolve_linenosEv(ptr noundef nonnull align 8 dereferenceable(44) %4) #13
  %31 = call noundef i64 @_ZN23JfrStackTraceRepository9add_traceERK13JfrStackTrace(ptr noundef nonnull align 8 dereferenceable(16432) %27, ptr noundef nonnull align 8 dereferenceable(44) %4)
  br label %_ZN23JfrStackTraceRepository6recordEP10JavaThreadilP13JfrStackFramej.exit

_ZN23JfrStackTraceRepository6recordEP10JavaThreadilP13JfrStackFramej.exit: ; preds = %_ZNK14JfrThreadLocal11stackframesEv.exit.thread, %26, %30
  %32 = phi i64 [ 0, %_ZNK14JfrThreadLocal11stackframesEv.exit.thread ], [ %31, %30 ], [ %28, %26 ]
  call void @_ZN13JfrStackTraceD1Ev(ptr noundef nonnull align 8 dereferenceable(44) %4) #13
  call void @llvm.lifetime.end.p0(i64 48, ptr nonnull %4)
  br label %33

33:                                               ; preds = %3, %_ZNK14JfrThreadLocal11stackframesEv.exit, %8, %13, %_ZN23JfrStackTraceRepository6recordEP10JavaThreadilP13JfrStackFramej.exit
  %.0 = phi i64 [ %32, %_ZN23JfrStackTraceRepository6recordEP10JavaThreadilP13JfrStackFramej.exit ], [ 0, %13 ], [ 0, %8 ], [ 0, %_ZNK14JfrThreadLocal11stackframesEv.exit ], [ %7, %3 ]
  ret i64 %.0
}